ccopy_reg
_reconstructor
p1
(cxmppd.modules.db_fake
DictWatch
p2
c__builtin__
dict
p3
(dp4
S'127.0.0.1'
p5
g1
(g2
g3
(dp6
S'acc'
p7
g1
(g2
g3
(dp8
S'name'
p9
S'ACC'
p10
sS'groups'
p11
g1
(g2
g3
(dtRp12
sS'roster'
p13
g1
(g2
g3
(dtRp14
sS'anon_allow'
p15
S'yes'
p16
sS'password'
p17
S'HLzVMKnE'
p18
sS'storage'
p19
g1
(g2
g3
(dtRp20
stRp21
sVslave
p22
g1
(g2
g3
(dp23
S'name'
p24
Vslave
p25
sS'groups'
p26
g1
(g2
g3
(dtRp27
sS'roster'
p28
g1
(g2
g3
(dp29
Vams.127.0.0.1
p30
(dp31
S'state'
p32
S''
sS'subscription'
p33
S'to'
p34
sstRp35
sS'anon_allow'
p36
S'yes'
p37
sS'password'
p38
Vsecret
p39
sS'storage'
p40
g1
(g2
g3
(dtRp41
stRp42
sS'df'
p43
g1
(g2
g3
(dp44
g9
S'DF'
p45
sg11
g1
(g2
g3
(dtRp46
sg13
g1
(g2
g3
(dtRp47
sg15
g16
sg17
S'PiHLiVzJ'
p48
sg19
g1
(g2
g3
(dtRp49
stRp50
sVtempus
p51
g1
(g2
g3
(dp52
S'name'
p53
Vtempus
p54
sS'groups'
p55
g1
(g2
g3
(dtRp56
sS'roster'
p57
g1
(g2
g3
(dp58
Vams.127.0.0.1
p59
(dp60
S'state'
p61
S''
sS'subscription'
p62
S'to'
p63
sstRp64
sS'anon_allow'
p65
S'yes'
p66
sS'password'
p67
Vsecret
p68
sS'storage'
p69
g1
(g2
g3
(dtRp70
stRp71
sVagent
p72
g1
(g2
g3
(dp73
S'name'
p74
Vagent
p75
sS'groups'
p76
g1
(g2
g3
(dtRp77
sS'roster'
p78
g1
(g2
g3
(dp79
Vams.127.0.0.1
p80
(dp81
S'state'
p82
S''
sS'subscription'
p83
S'to'
p84
sstRp85
sS'anon_allow'
p86
S'yes'
p87
sS'password'
p88
Vsecret
p89
sS'storage'
p90
g1
(g2
g3
(dtRp91
stRp92
sVmaster
p93
g1
(g2
g3
(dp94
g24
Vmaster
p95
sg26
g1
(g2
g3
(dtRp96
sg28
g1
(g2
g3
(dp97
Vams.127.0.0.1
p98
(dp99
g32
S''
sg33
g34
sstRp100
sg36
g37
sg38
Vsecret
p101
sg40
g1
(g2
g3
(dtRp102
stRp103
sVreceiver
p104
g1
(g2
g3
(dp105
g53
Vreceiver
p106
sg55
g1
(g2
g3
(dtRp107
sg57
g1
(g2
g3
(dp108
Vams.127.0.0.1
p109
(dp110
g61
S''
sg62
g63
sstRp111
sg65
g66
sg67
Vsecret
p112
sg69
g1
(g2
g3
(dtRp113
stRp114
sS'ams'
p115
g1
(g2
g3
(dp116
g9
S'AMS'
p117
sg11
g1
(g2
g3
(dtRp118
sg13
g1
(g2
g3
(dp119
S'tempus@127.0.0.1'
p120
(dp121
S'state'
p122
S''
sS'subscription'
p123
S'from'
p124
ssS'master@127.0.0.1'
p125
(dp126
g122
S''
sg123
g124
sstRp127
sg15
g16
sg17
S'fhVeheMH'
p128
sg19
g1
(g2
g3
(dtRp129
stRp130
sS'__ir__'
p131
(dp132
g15
g16
sg17
S'test'
p133
sg19
(dp134
S'karma'
p135
(dp136
S'down'
p137
I307200
sS'tot_up'
p138
I0
sS'tot_down'
p139
I0
sS'up'
p140
L307200307200307200L
sS'last_time'
p141
F0
sssg11
(dp142
sg13
(dp143
sstRp144
stRp145
.